; Function Attrs: mustprogress uwtable
define void @_ZN3gmx19DoubleOptionStorageC2ERKNS_12DoubleOptionE(ptr noundef nonnull align 8 dereferenceable(232) %0, ptr noundef nonnull align 8 dereferenceable(89) %1) unnamed_addr #2 align 2 personality ptr @__gxx_personality_v0 {
  tail call void @_ZN3gmx21OptionStorageTemplateIdEC2INS_12DoubleOptionEEERKNS_14OptionTemplateIdT_EENS_13FlagsTemplateINS_10OptionFlagEEE(ptr noundef nonnull align 8 dereferenceable(193) %0, ptr noundef nonnull align 8 dereferenceable(88) %1, i64 0)
  %3 = getelementptr inbounds nuw i8, ptr %0, i64 152
  store i32 0, ptr %3, align 8, !tbaa !34
  %4 = getelementptr inbounds nuw i8, ptr %0, i64 160
  store ptr null, ptr %4, align 8, !tbaa !39
  %5 = getelementptr inbounds nuw i8, ptr %0, i64 168
  store ptr %3, ptr %5, align 8, !tbaa !40
  %6 = getelementptr inbounds nuw i8, ptr %0, i64 176
  store ptr %3, ptr %6, align 8, !tbaa !41
  %7 = getelementptr inbounds nuw i8, ptr %0, i64 184
  store i64 0, ptr %7, align 8, !tbaa !42
  %8 = getelementptr inbounds nuw i8, ptr %0, i64 192
  store i8 0, ptr %8, align 8, !tbaa !136
  store ptr getelementptr inbounds nuw inrange(-16, 144) (i8, ptr @_ZTVN3gmx19DoubleOptionStorageE, i64 16), ptr %0, align 8, !tbaa !27
  %9 = getelementptr inbounds nuw i8, ptr %0, i64 200
  invoke void @_ZN3gmx16DoubleOptionInfoC1EPNS_19DoubleOptionStorageE(ptr noundef nonnull align 8 dereferenceable(16) %9, ptr noundef nonnull %0)
          to label %10 unwind label %15

10:                                               ; preds = %2
  %11 = getelementptr inbounds nuw i8, ptr %0, i64 216
  %12 = getelementptr inbounds nuw i8, ptr %1, i64 88
  %13 = load i8, ptr %12, align 8, !tbaa !161, !range !7, !noundef !8
  store i8 %13, ptr %11, align 8, !tbaa !166
  %14 = getelementptr inbounds nuw i8, ptr %0, i64 224
  store double 1.000000e+00, ptr %14, align 8, !tbaa !170
  ret void

15:                                               ; preds = %2
  %16 = landingpad { ptr, i32 }
          cleanup
  tail call void @_ZN3gmx27OptionStorageTemplateSimpleIdED2Ev(ptr noundef nonnull align 8 dereferenceable(193) %0) #28
  resume { ptr, i32 } %16
}